; Function Attrs: mustprogress nounwind uwtable
define hidden void @_ZN4llvh3sys2fs8TempFileC2ENS_9StringRefEi(ptr noundef nonnull align 8 dereferenceable(44) %this, ptr %Name.coerce0, i64 %Name.coerce1, i32 noundef %FD) unnamed_addr #0 align 2 {
entry:
  %ref.tmp.i.i = alloca %"class.std::allocator", align 1
  store i8 0, ptr %this, align 8
  %TmpName = getelementptr inbounds i8, ptr %this, i64 8
  call void @llvm.lifetime.start.p0(i64 1, ptr nonnull %ref.tmp.i.i), !noalias !99
  %tobool.not.i.i = icmp eq ptr %Name.coerce0, null
  br i1 %tobool.not.i.i, label %if.then.i.i, label %if.end.i.i

if.then.i.i:                                      ; preds = %entry
  tail call void @_ZNSt7__cxx1112basic_stringIcSt11char_traitsIcESaIcEEC1Ev(ptr noundef nonnull align 8 dereferenceable(32) %TmpName) #29
  br label %_ZNK4llvh9StringRefcvNSt7__cxx1112basic_stringIcSt11char_traitsIcESaIcEEEEv.exit

if.end.i.i:                                       ; preds = %entry
  call void @_ZNSaIcEC1Ev(ptr noundef nonnull align 1 dereferenceable(1) %ref.tmp.i.i) #29, !noalias !102
  call void @_ZNSt7__cxx1112basic_stringIcSt11char_traitsIcESaIcEEC1EPKcmRKS3_(ptr noundef nonnull align 8 dereferenceable(32) %TmpName, ptr noundef nonnull %Name.coerce0, i64 noundef %Name.coerce1, ptr noundef nonnull align 1 dereferenceable(1) %ref.tmp.i.i) #29
  call void @_ZNSaIcED1Ev(ptr noundef nonnull align 1 dereferenceable(1) %ref.tmp.i.i) #29
  br label %_ZNK4llvh9StringRefcvNSt7__cxx1112basic_stringIcSt11char_traitsIcESaIcEEEEv.exit

_ZNK4llvh9StringRefcvNSt7__cxx1112basic_stringIcSt11char_traitsIcESaIcEEEEv.exit: ; preds = %if.then.i.i, %if.end.i.i
  call void @llvm.lifetime.end.p0(i64 1, ptr nonnull %ref.tmp.i.i), !noalias !99
  %FD2 = getelementptr inbounds i8, ptr %this, i64 40
  store i32 %FD, ptr %FD2, align 8
  ret void
}